target datalayout = "e-m:e-p270:32:32-p271:32:32-p272:64:64-i64:64-i128:128-f80:128-n8:16:32:64-S128"
target triple = "x86_64-pc-linux-gnu"

%"struct.mitsuba::Jit" = type { %"class.std::__1::mutex", %"class.asmjit::_abi_1_10::JitRuntime" }
%"class.std::__1::mutex" = type { %union.pthread_mutex_t }
%union.pthread_mutex_t = type { %struct.__pthread_mutex_s }
%struct.__pthread_mutex_s = type { i32, i32, i32, i32, i32, i16, i16, %struct.__pthread_internal_list }
%struct.__pthread_internal_list = type { ptr, ptr }
%"class.asmjit::_abi_1_10::JitRuntime" = type { %"class.asmjit::_abi_1_10::Target", %"class.asmjit::_abi_1_10::JitAllocator" }
%"class.asmjit::_abi_1_10::Target" = type { ptr, %"class.asmjit::_abi_1_10::Environment", %"class.asmjit::_abi_1_10::CpuFeatures" }
%"class.asmjit::_abi_1_10::Environment" = type { i8, i8, i8, i8, i8, i8, [2 x i8] }
%"class.asmjit::_abi_1_10::CpuFeatures" = type { %"struct.asmjit::_abi_1_10::CpuFeatures::Data" }
%"struct.asmjit::_abi_1_10::CpuFeatures::Data" = type { %"struct.asmjit::_abi_1_10::Support::Array" }
%"struct.asmjit::_abi_1_10::Support::Array" = type { [4 x i64] }
%"class.asmjit::_abi_1_10::JitAllocator" = type { ptr }

$_ZNSt3__15mutexC2B8ne190000Ev = comdat any

$_ZN7mitsuba3JitD2Ev = comdat any

@_ZN7mitsubaL3jitE = internal global ptr null, align 8

@_ZN7mitsuba3JitC1Ev = unnamed_addr alias void (ptr), ptr @_ZN7mitsuba3JitC2Ev

; Function Attrs: mustprogress nounwind uwtable
define void @_ZN7mitsuba3JitC2Ev(ptr noundef nonnull align 8 dereferenceable(96) %0) unnamed_addr #0 align 2 {
  %2 = alloca ptr, align 8
  store ptr %0, ptr %2, align 8
  %3 = load ptr, ptr %2, align 8
  %4 = getelementptr inbounds %"struct.mitsuba::Jit", ptr %3, i32 0, i32 0
  call void @_ZNSt3__15mutexC2B8ne190000Ev(ptr noundef nonnull align 8 dereferenceable(40) %4) #6
  %5 = getelementptr inbounds %"struct.mitsuba::Jit", ptr %3, i32 0, i32 1
  call void @_ZN6asmjit9_abi_1_1010JitRuntimeC1EPKNS0_12JitAllocator12CreateParamsE(ptr noundef nonnull align 8 dereferenceable(56) %5, ptr noundef null) #6
  ret void
}

; Function Attrs: mustprogress nounwind uwtable
define linkonce_odr hidden void @_ZNSt3__15mutexC2B8ne190000Ev(ptr noundef nonnull align 8 dereferenceable(40) %0) unnamed_addr #0 comdat align 2 {
  %2 = alloca ptr, align 8
  store ptr %0, ptr %2, align 8
  %3 = load ptr, ptr %2, align 8
  %4 = getelementptr inbounds %"class.std::__1::mutex", ptr %3, i32 0, i32 0
  call void @llvm.memset.p0.i64(ptr align 8 %4, i8 0, i64 40, i1 false)
  %5 = getelementptr inbounds %struct.__pthread_mutex_s, ptr %4, i32 0, i32 4
  store i32 0, ptr %5, align 8
  ret void
}

; Function Attrs: nounwind
declare void @_ZN6asmjit9_abi_1_1010JitRuntimeC1EPKNS0_12JitAllocator12CreateParamsE(ptr noundef nonnull align 8 dereferenceable(56), ptr noundef) unnamed_addr #1

; Function Attrs: mustprogress nounwind uwtable
define noundef ptr @_ZN7mitsuba3Jit12get_instanceEv() #0 align 2 {
  %1 = load ptr, ptr @_ZN7mitsubaL3jitE, align 8
  ret ptr %1
}

; Function Attrs: mustprogress uwtable
define void @_ZN7mitsuba3Jit21static_initializationEv() #2 align 2 personality ptr @__gxx_personality_v0 {
  %1 = alloca ptr, align 8
  %2 = alloca i32, align 4
  %3 = call noalias noundef nonnull ptr @_Znwm(i64 noundef 96) #7
  invoke void @_ZN7mitsuba3JitC1Ev(ptr noundef nonnull align 8 dereferenceable(96) %3)
          to label %4 unwind label %5

4:                                                ; preds = %0
  store ptr %3, ptr @_ZN7mitsubaL3jitE, align 8
  ret void

5:                                                ; preds = %0
  %6 = landingpad { ptr, i32 }
          cleanup
  %7 = extractvalue { ptr, i32 } %6, 0
  store ptr %7, ptr %1, align 8
  %8 = extractvalue { ptr, i32 } %6, 1
  store i32 %8, ptr %2, align 4
  call void @_ZdlPv(ptr noundef %3) #8
  br label %9

9:                                                ; preds = %5
  %10 = load ptr, ptr %1, align 8
  %11 = load i32, ptr %2, align 4
  %12 = insertvalue { ptr, i32 } poison, ptr %10, 0
  %13 = insertvalue { ptr, i32 } %12, i32 %11, 1
  resume { ptr, i32 } %13
}

; Function Attrs: nobuiltin allocsize(0)
declare noundef nonnull ptr @_Znwm(i64 noundef) #3

declare i32 @__gxx_personality_v0(...)

; Function Attrs: nobuiltin nounwind
declare void @_ZdlPv(ptr noundef) #4

; Function Attrs: mustprogress nounwind uwtable
define void @_ZN7mitsuba3Jit15static_shutdownEv() #0 align 2 {
  %1 = load ptr, ptr @_ZN7mitsubaL3jitE, align 8
  %2 = icmp eq ptr %1, null
  br i1 %2, label %4, label %3

3:                                                ; preds = %0
  call void @_ZN7mitsuba3JitD2Ev(ptr noundef nonnull align 8 dereferenceable(96) %1) #6
  call void @_ZdlPv(ptr noundef %1) #8
  br label %4

4:                                                ; preds = %3, %0
  store ptr null, ptr @_ZN7mitsubaL3jitE, align 8
  ret void
}

; Function Attrs: mustprogress nounwind uwtable
define linkonce_odr void @_ZN7mitsuba3JitD2Ev(ptr noundef nonnull align 8 dereferenceable(96) %0) unnamed_addr #0 comdat align 2 {
  %2 = alloca ptr, align 8
  store ptr %0, ptr %2, align 8
  %3 = load ptr, ptr %2, align 8
  %4 = getelementptr inbounds %"struct.mitsuba::Jit", ptr %3, i32 0, i32 1
  call void @_ZN6asmjit9_abi_1_1010JitRuntimeD1Ev(ptr noundef nonnull align 8 dereferenceable(56) %4) #6
  ret void
}

; Function Attrs: nocallback nofree nounwind willreturn memory(argmem: write)
declare void @llvm.memset.p0.i64(ptr nocapture writeonly, i8, i64, i1 immarg) #5

; Function Attrs: nounwind
declare void @_ZN6asmjit9_abi_1_1010JitRuntimeD1Ev(ptr noundef nonnull align 8 dereferenceable(56)) unnamed_addr #1


!llvm.module.flags = !{!0, !1, !2, !3}

!0 = !{i32 1, !"wchar_size", i32 4}
!1 = !{i32 8, !"PIC Level", i32 2}
!2 = !{i32 7, !"uwtable", i32 2}
!3 = !{i32 7, !"frame-pointer", i32 2}
