; ModuleID = 'bench/mitsuba3/original/jit.cpp.ll'
source_filename = "bench/mitsuba3/original/jit.cpp.ll"
target datalayout = "e-m:e-p270:32:32-p271:32:32-p272:64:64-i64:64-i128:128-f80:128-n8:16:32:64-S128"
target triple = "x86_64-pc-linux-gnu"

@_ZN7mitsubaL3jitE = internal unnamed_addr global ptr null, align 8

@_ZN7mitsuba3JitC1Ev = unnamed_addr alias void (ptr), ptr @_ZN7mitsuba3JitC2Ev

; Function Attrs: mustprogress nounwind uwtable
define void @_ZN7mitsuba3JitC2Ev(ptr noundef nonnull align 8 dereferenceable(96) %0) unnamed_addr #0 align 2 {
  tail call void @llvm.memset.p0.i64(ptr noundef nonnull align 8 dereferenceable(40) %0, i8 0, i64 40, i1 false)
  %2 = getelementptr inbounds i8, ptr %0, i64 40
  tail call void @_ZN6asmjit9_abi_1_1010JitRuntimeC1EPKNS0_12JitAllocator12CreateParamsE(ptr noundef nonnull align 8 dereferenceable(56) %2, ptr noundef null) #7
  ret void
}

; Function Attrs: nounwind
declare void @_ZN6asmjit9_abi_1_1010JitRuntimeC1EPKNS0_12JitAllocator12CreateParamsE(ptr noundef nonnull align 8 dereferenceable(56), ptr noundef) unnamed_addr #1

; Function Attrs: mustprogress nofree norecurse nosync nounwind willreturn memory(read, argmem: none, inaccessiblemem: none) uwtable
define noundef ptr @_ZN7mitsuba3Jit12get_instanceEv() local_unnamed_addr #2 align 2 {
  %1 = load ptr, ptr @_ZN7mitsubaL3jitE, align 8
  ret ptr %1
}

; Function Attrs: mustprogress uwtable
define void @_ZN7mitsuba3Jit21static_initializationEv() local_unnamed_addr #3 align 2 personality ptr @__gxx_personality_v0 {
  %1 = tail call noalias noundef nonnull dereferenceable(96) ptr @_Znwm(i64 noundef 96) #8
  invoke void @_ZN7mitsuba3JitC1Ev(ptr noundef nonnull align 8 dereferenceable(96) %1)
          to label %2 unwind label %3

2:                                                ; preds = %0
  store ptr %1, ptr @_ZN7mitsubaL3jitE, align 8
  ret void

3:                                                ; preds = %0
  %4 = landingpad { ptr, i32 }
          cleanup
  tail call void @_ZdlPv(ptr noundef nonnull %1) #9
  resume { ptr, i32 } %4
}

; Function Attrs: nobuiltin allocsize(0)
declare noundef nonnull ptr @_Znwm(i64 noundef) local_unnamed_addr #4

declare i32 @__gxx_personality_v0(...)

; Function Attrs: nobuiltin nounwind
declare void @_ZdlPv(ptr noundef) local_unnamed_addr #5

; Function Attrs: mustprogress nounwind uwtable
define void @_ZN7mitsuba3Jit15static_shutdownEv() local_unnamed_addr #0 align 2 {
  %1 = load ptr, ptr @_ZN7mitsubaL3jitE, align 8
  %2 = icmp eq ptr %1, null
  br i1 %2, label %5, label %3

3:                                                ; preds = %0
  %4 = getelementptr inbounds i8, ptr %1, i64 40
  tail call void @_ZN6asmjit9_abi_1_1010JitRuntimeD1Ev(ptr noundef nonnull align 8 dereferenceable(56) %4) #7
  tail call void @_ZdlPv(ptr noundef nonnull %1) #9
  br label %5

5:                                                ; preds = %3, %0
  store ptr null, ptr @_ZN7mitsubaL3jitE, align 8
  ret void
}

; Function Attrs: mustprogress nocallback nofree nounwind willreturn memory(argmem: write)
declare void @llvm.memset.p0.i64(ptr nocapture writeonly, i8, i64, i1 immarg) #6

; Function Attrs: nounwind
declare void @_ZN6asmjit9_abi_1_1010JitRuntimeD1Ev(ptr noundef nonnull align 8 dereferenceable(56)) unnamed_addr #1


!llvm.module.flags = !{!0, !1, !2, !3}

!0 = !{i32 1, !"wchar_size", i32 4}
!1 = !{i32 8, !"PIC Level", i32 2}
!2 = !{i32 7, !"uwtable", i32 2}
!3 = !{i32 7, !"frame-pointer", i32 2}
